target datalayout = "e-m:e-p270:32:32-p271:32:32-p272:64:64-i64:64-i128:128-f80:128-n8:16:32:64-S128"
target triple = "x86_64-pc-linux-gnu"

%struct.block_record_t = type { i32, ptr, ptr, ptr, i16 }

@block_record_cnt = external global i32, align 4
@block_record_table = external global ptr, align 8

; Function Attrs: nounwind uwtable
define dso_local i32 @topology_p_whole_topo(ptr noundef %0) #0 {
  %2 = alloca ptr, align 8
  %3 = alloca i32, align 4
  store ptr %0, ptr %2, align 8
  call void @llvm.lifetime.start.p0(i64 4, ptr %3) #8
  store i32 0, ptr %3, align 4
  br label %4

4:                                                ; preds = %28, %1
  %5 = load i32, ptr %3, align 4
  %6 = load i32, ptr @block_record_cnt, align 4
  %7 = icmp slt i32 %5, %6
  br i1 %7, label %9, label %8

8:                                                ; preds = %4
  call void @llvm.lifetime.end.p0(i64 4, ptr %3) #8
  br label %31

9:                                                ; preds = %4
  %10 = load ptr, ptr @block_record_table, align 8
  %11 = load i32, ptr %3, align 4
  %12 = sext i32 %11 to i64
  %13 = getelementptr inbounds %struct.block_record_t, ptr %10, i64 %12
  %14 = getelementptr inbounds nuw %struct.block_record_t, ptr %13, i32 0, i32 2
  %15 = load ptr, ptr %14, align 8
  %16 = load ptr, ptr %2, align 8
  %17 = call i32 @slurm_bit_overlap_any(ptr noundef %15, ptr noundef %16)
  %18 = icmp ne i32 %17, 0
  br i1 %18, label %19, label %27

19:                                               ; preds = %9
  %20 = load ptr, ptr %2, align 8
  %21 = load ptr, ptr @block_record_table, align 8
  %22 = load i32, ptr %3, align 4
  %23 = sext i32 %22 to i64
  %24 = getelementptr inbounds %struct.block_record_t, ptr %21, i64 %23
  %25 = getelementptr inbounds nuw %struct.block_record_t, ptr %24, i32 0, i32 2
  %26 = load ptr, ptr %25, align 8
  call void @slurm_bit_or(ptr noundef %20, ptr noundef %26)
  br label %27

27:                                               ; preds = %19, %9
  br label %28

28:                                               ; preds = %27
  %29 = load i32, ptr %3, align 4
  %30 = add nsw i32 %29, 1
  store i32 %30, ptr %3, align 4
  br label %4, !llvm.loop !8

31:                                               ; preds = %8
  ret i32 0
}