; Function Attrs: nounwind uwtable
define dso_local noundef i32 @topology_p_whole_topo(ptr noundef %0) local_unnamed_addr #0 {
  %2 = load i32, ptr @block_record_cnt, align 4
  %3 = icmp sgt i32 %2, 0
  br i1 %3, label %.lr.ph, label %._crit_edge

._crit_edge:                                      ; preds = %12, %1
  ret i32 0

.lr.ph:                                           ; preds = %1, %12
  %indvars.iv = phi i64 [ %indvars.iv.next, %12 ], [ 0, %1 ]
  %4 = load ptr, ptr @block_record_table, align 8
  %5 = getelementptr inbounds nuw %struct.block_record_t, ptr %4, i64 %indvars.iv, i32 2
  %6 = load ptr, ptr %5, align 8
  %7 = tail call i32 @slurm_bit_overlap_any(ptr noundef %6, ptr noundef %0) #9
  %.not = icmp eq i32 %7, 0
  br i1 %.not, label %12, label %8

8:                                                ; preds = %.lr.ph
  %9 = load ptr, ptr @block_record_table, align 8
  %10 = getelementptr inbounds nuw %struct.block_record_t, ptr %9, i64 %indvars.iv, i32 2
  %11 = load ptr, ptr %10, align 8
  tail call void @slurm_bit_or(ptr noundef %0, ptr noundef %11) #9
  br label %12

12:                                               ; preds = %.lr.ph, %8
  %indvars.iv.next = add nuw nsw i64 %indvars.iv, 1
  %13 = load i32, ptr @block_record_cnt, align 4
  %14 = sext i32 %13 to i64
  %15 = icmp slt i64 %indvars.iv.next, %14
  br i1 %15, label %.lr.ph, label %._crit_edge, !llvm.loop !8
}